; Function Attrs: nounwind uwtable
define i32 @Gia_ManHashAndMulti2(ptr noundef %0, ptr noundef readonly captures(none) %1) local_unnamed_addr #2 {
  %3 = getelementptr i8, ptr %1, i64 4
  %.val10 = load i32, ptr %3, align 4, !tbaa !3
  %4 = icmp sgt i32 %.val10, 0
  br i1 %4, label %.lr.ph, label %.critedge

.lr.ph:                                           ; preds = %2
  %5 = getelementptr i8, ptr %1, i64 8
  br label %6

6:                                                ; preds = %.lr.ph, %6
  %indvars.iv = phi i64 [ 0, %.lr.ph ], [ %indvars.iv.next, %6 ]
  %.012 = phi i32 [ 1, %.lr.ph ], [ %9, %6 ]
  %.val9 = load ptr, ptr %5, align 8, !tbaa !10
  %7 = getelementptr inbounds nuw i32, ptr %.val9, i64 %indvars.iv
  %8 = load i32, ptr %7, align 4, !tbaa !11
  %9 = tail call i32 @Gia_ManHashAnd(ptr noundef %0, i32 noundef %.012, i32 noundef %8)
  %indvars.iv.next = add nuw nsw i64 %indvars.iv, 1
  %.val = load i32, ptr %3, align 4, !tbaa !3
  %10 = sext i32 %.val to i64
  %11 = icmp slt i64 %indvars.iv.next, %10
  br i1 %11, label %6, label %.critedge, !llvm.loop !65

.critedge:                                        ; preds = %6, %2
  %.0.lcssa = phi i32 [ 1, %2 ], [ %9, %6 ]
  ret i32 %.0.lcssa
}